; Function Attrs: nounwind uwtable
define i32 @wc_ecc_export_public_raw(ptr noundef %key, ptr noundef %qx, ptr noundef %qxLen, ptr noundef %qy, ptr noundef %qyLen) local_unnamed_addr #2 {
entry:
  %cmp = icmp eq ptr %qx, null
  %cmp1 = icmp eq ptr %qxLen, null
  %or.cond = or i1 %cmp, %cmp1
  %cmp3 = icmp eq ptr %qy, null
  %or.cond1 = or i1 %or.cond, %cmp3
  %cmp5 = icmp eq ptr %qyLen, null
  %or.cond2 = or i1 %or.cond1, %cmp5
  %cmp.i = icmp eq ptr %key, null
  %or.cond7 = or i1 %cmp.i, %or.cond2
  br i1 %or.cond7, label %return, label %if.end.i

if.end.i:                                         ; preds = %entry
  %idx.i = getelementptr inbounds nuw i8, ptr %key, i64 4
  %0 = load i32, ptr %idx.i, align 4
  %1 = add i32 %0, -5
  %narrow.i.i = icmp ult i32 %1, -6
  br i1 %narrow.i.i, label %return, label %lor.lhs.false.i

lor.lhs.false.i:                                  ; preds = %if.end.i
  %dp.i = getelementptr inbounds nuw i8, ptr %key, i64 16
  %2 = load ptr, ptr %dp.i, align 8
  %cmp2.i = icmp eq ptr %2, null
  br i1 %cmp2.i, label %return, label %lor.lhs.false23.i

lor.lhs.false23.i:                                ; preds = %lor.lhs.false.i
  %3 = load i32, ptr %2, align 8
  %4 = load i32, ptr %key, align 8
  %cmp25.i = icmp eq i32 %4, 3
  br i1 %cmp25.i, label %return, label %if.end27.i

if.end27.i:                                       ; preds = %lor.lhs.false23.i
  %pubkey.i = getelementptr inbounds nuw i8, ptr %key, i64 32
  %call29.i = tail call i32 @wc_export_int(ptr noundef nonnull %pubkey.i, ptr noundef nonnull %qx, ptr noundef nonnull %qxLen, i32 noundef %3, i32 noundef 2) #19
  %cmp30.not.i = icmp eq i32 %call29.i, 0
  br i1 %cmp30.not.i, label %lor.lhs.false37.i, label %return

lor.lhs.false37.i:                                ; preds = %if.end27.i
  %5 = load i32, ptr %key, align 8
  %cmp39.i = icmp eq i32 %5, 3
  br i1 %cmp39.i, label %return, label %if.end41.i

if.end41.i:                                       ; preds = %lor.lhs.false37.i
  %y.i = getelementptr inbounds nuw i8, ptr %key, i64 1072
  %call44.i = tail call i32 @wc_export_int(ptr noundef nonnull %y.i, ptr noundef nonnull %qy, ptr noundef nonnull %qyLen, i32 noundef %3, i32 noundef 2) #19
  br label %return

return:                                           ; preds = %if.end41.i, %lor.lhs.false37.i, %if.end27.i, %lor.lhs.false23.i, %lor.lhs.false.i, %if.end.i, %entry
  %retval.0 = phi i32 [ -173, %entry ], [ -170, %lor.lhs.false.i ], [ -170, %if.end.i ], [ -173, %lor.lhs.false23.i ], [ %call29.i, %if.end27.i ], [ -173, %lor.lhs.false37.i ], [ %call44.i, %if.end41.i ]
  ret i32 %retval.0
}